target datalayout = "e-m:e-p270:32:32-p271:32:32-p272:64:64-i64:64-i128:128-f80:128-n8:16:32:64-S128"
target triple = "x86_64-pc-linux-gnu"

%"class.boost::filesystem::path" = type { %"class.std::__cxx11::basic_string" }
%"class.std::__cxx11::basic_string" = type { %"struct.std::__cxx11::basic_string<char>::_Alloc_hider", i64, %union.anon }
%"struct.std::__cxx11::basic_string<char>::_Alloc_hider" = type { ptr }
%union.anon = type { i64, [8 x i8] }
%struct.statx = type { i32, i32, i64, i32, i32, i32, i16, [1 x i16], i64, i64, i64, i64, %struct.statx_timestamp, %struct.statx_timestamp, %struct.statx_timestamp, %struct.statx_timestamp, i32, i32, i32, i32, i64, i64, [12 x i64] }
%struct.statx_timestamp = type { i64, i32, i32 }
%"class.boost::system::error_code" = type { %union.anon.1, i64 }
%union.anon.1 = type { %"struct.boost::system::error_code::data" }
%"struct.boost::system::error_code::data" = type { i32, ptr }

@.str.13 = private unnamed_addr constant [29 x i8] c"boost::filesystem::file_size\00", align 1

; Function Attrs: noinline noreturn nounwind uwtable
define linkonce_odr hidden void @__clang_call_terminate(ptr noundef %0) #3 comdat {
  %2 = call ptr @__cxa_begin_catch(ptr %0) #14
  call void @_ZSt9terminatev() #20
  unreachable
}

; Function Attrs: mustprogress nounwind uwtable
define available_externally noundef ptr @_ZNKSt7__cxx1112basic_stringIcSt11char_traitsIcESaIcEE7_M_dataEv(ptr noundef nonnull align 8 dereferenceable(32) %0) #2 align 2 {
  %2 = alloca ptr, align 8
  store ptr %0, ptr %2, align 8, !tbaa !3
  %3 = load ptr, ptr %2, align 8
  %4 = getelementptr inbounds nuw %"class.std::__cxx11::basic_string", ptr %3, i32 0, i32 0
  %5 = getelementptr inbounds nuw %"struct.std::__cxx11::basic_string<char>::_Alloc_hider", ptr %4, i32 0, i32 0
  %6 = load ptr, ptr %5, align 8, !tbaa !90
  ret ptr %6
}

; Function Attrs: mustprogress nounwind uwtable
define available_externally noundef ptr @_ZNKSt7__cxx1112basic_stringIcSt11char_traitsIcESaIcEE5c_strEv(ptr noundef nonnull align 8 dereferenceable(32) %0) #2 align 2 personality ptr @__gxx_personality_v0 {
  %2 = alloca ptr, align 8
  store ptr %0, ptr %2, align 8, !tbaa !3
  %3 = load ptr, ptr %2, align 8
  %4 = invoke noundef ptr @_ZNKSt7__cxx1112basic_stringIcSt11char_traitsIcESaIcEE7_M_dataEv(ptr noundef nonnull align 8 dereferenceable(32) %3)
          to label %5 unwind label %6

5:                                                ; preds = %1
  ret ptr %4

6:                                                ; preds = %1
  %7 = landingpad { ptr, i32 }
          catch ptr null
  %8 = extractvalue { ptr, i32 } %7, 0
  call void @__clang_call_terminate(ptr %8) #20
  unreachable
}

; Function Attrs: mustprogress nounwind uwtable
define linkonce_odr hidden void @_ZN5boost6system10error_codeC2Ev(ptr noundef nonnull align 8 dereferenceable(24) %0) unnamed_addr #2 comdat align 2 {
  %2 = alloca ptr, align 8
  store ptr %0, ptr %2, align 8, !tbaa !3
  %3 = load ptr, ptr %2, align 8
  %4 = getelementptr inbounds nuw %"class.boost::system::error_code", ptr %3, i32 0, i32 0
  call void @llvm.memset.p0.i64(ptr align 8 %4, i8 0, i64 16, i1 false)
  %5 = getelementptr inbounds nuw %"class.boost::system::error_code", ptr %3, i32 0, i32 1
  store i64 0, ptr %5, align 8, !tbaa !32
  ret void
}

; Function Attrs: inlinehint mustprogress nounwind uwtable
define internal noundef i64 @_ZN5boost10filesystem6detail12_GLOBAL__N_18get_sizeERK5statx(ptr noundef nonnull align 8 dereferenceable(256) %0) #1 {
  %2 = alloca ptr, align 8
  store ptr %0, ptr %2, align 8, !tbaa !3
  %3 = load ptr, ptr %2, align 8, !tbaa !3
  %4 = getelementptr inbounds nuw %struct.statx, ptr %3, i32 0, i32 9
  %5 = load i64, ptr %4, align 8, !tbaa !57
  ret i64 %5
}

; Function Attrs: alwaysinline mustprogress nounwind uwtable
define internal noundef i32 @_ZN5boost10filesystem6detail12_GLOBAL__N_112invoke_statxEiPKcijP5statx(i32 noundef %0, ptr noundef %1, i32 noundef %2, i32 noundef %3, ptr noundef %4) #6 {
  %6 = alloca i32, align 4
  %7 = alloca ptr, align 8
  %8 = alloca i32, align 4
  %9 = alloca i32, align 4
  %10 = alloca ptr, align 8
  store i32 %0, ptr %6, align 4, !tbaa !7
  store ptr %1, ptr %7, align 8, !tbaa !3
  store i32 %2, ptr %8, align 4, !tbaa !7
  store i32 %3, ptr %9, align 4, !tbaa !7
  store ptr %4, ptr %10, align 8, !tbaa !3
  %11 = load i32, ptr %6, align 4, !tbaa !7
  %12 = load ptr, ptr %7, align 8, !tbaa !3
  %13 = load i32, ptr %8, align 4, !tbaa !7
  %14 = load i32, ptr %9, align 4, !tbaa !7
  %15 = load ptr, ptr %10, align 8, !tbaa !3
  %16 = call i32 @statx(i32 noundef %11, ptr noundef %12, i32 noundef %13, i32 noundef %14, ptr noundef %15) #14
  ret i32 %16
}

; Function Attrs: mustprogress nounwind uwtable
define linkonce_odr hidden noundef ptr @_ZNK5boost10filesystem4path5c_strEv(ptr noundef nonnull align 8 dereferenceable(32) %0) #2 comdat align 2 {
  %2 = alloca ptr, align 8
  store ptr %0, ptr %2, align 8, !tbaa !3
  %3 = load ptr, ptr %2, align 8
  %4 = getelementptr inbounds nuw %"class.boost::filesystem::path", ptr %3, i32 0, i32 0
  %5 = call noundef ptr @_ZNKSt7__cxx1112basic_stringIcSt11char_traitsIcESaIcEE5c_strEv(ptr noundef nonnull align 8 dereferenceable(32) %4) #14
  ret ptr %5
}

; Function Attrs: mustprogress nounwind uwtable
define linkonce_odr hidden void @_ZN5boost6system10error_code5clearEv(ptr noundef nonnull align 8 dereferenceable(24) %0) #2 comdat align 2 {
  %2 = alloca ptr, align 8
  %3 = alloca %"class.boost::system::error_code", align 8
  store ptr %0, ptr %2, align 8, !tbaa !3
  %4 = load ptr, ptr %2, align 8
  call void @llvm.lifetime.start.p0(i64 24, ptr %3) #14
  call void @_ZN5boost6system10error_codeC2Ev(ptr noundef nonnull align 8 dereferenceable(24) %3) #14
  call void @llvm.memcpy.p0.p0.i64(ptr align 8 %4, ptr align 8 %3, i64 24, i1 false), !tbaa.struct !21
  call void @llvm.lifetime.end.p0(i64 24, ptr %3) #14
  ret void
}

; Function Attrs: mustprogress uwtable
define noundef i64 @_ZN5boost10filesystem6detail9file_sizeERKNS0_4pathEPNS_6system10error_codeE(ptr noundef nonnull align 8 dereferenceable(32) %0, ptr noundef %1) #5 {
  %3 = alloca i64, align 8
  %4 = alloca ptr, align 8
  %5 = alloca ptr, align 8
  %6 = alloca %struct.statx, align 8
  %7 = alloca i32, align 4
  %8 = alloca i32, align 4
  store ptr %0, ptr %4, align 8, !tbaa !3
  store ptr %1, ptr %5, align 8, !tbaa !3
  %9 = load ptr, ptr %5, align 8, !tbaa !3
  %10 = icmp ne ptr %9, null
  br i1 %10, label %11, label %13

11:                                               ; preds = %2
  %12 = load ptr, ptr %5, align 8, !tbaa !3
  call void @_ZN5boost6system10error_code5clearEv(ptr noundef nonnull align 8 dereferenceable(24) %12) #14
  br label %13

13:                                               ; preds = %11, %2
  call void @llvm.lifetime.start.p0(i64 256, ptr %6) #14
  call void @llvm.lifetime.start.p0(i64 4, ptr %7) #14
  %14 = load ptr, ptr %4, align 8, !tbaa !3
  %15 = call noundef ptr @_ZNK5boost10filesystem4path5c_strEv(ptr noundef nonnull align 8 dereferenceable(32) %14) #14
  %16 = call noundef i32 @_ZN5boost10filesystem6detail12_GLOBAL__N_112invoke_statxEiPKcijP5statx(i32 noundef -100, ptr noundef %15, i32 noundef 2048, i32 noundef 513, ptr noundef %6)
  %17 = icmp slt i32 %16, 0
  %18 = zext i1 %17 to i64
  %19 = call i64 @llvm.expect.i64(i64 %18, i64 0)
  %20 = icmp ne i64 %19, 0
  br i1 %20, label %21, label %28

21:                                               ; preds = %13
  %22 = call ptr @__errno_location() #22
  %23 = load i32, ptr %22, align 4, !tbaa !7
  store i32 %23, ptr %7, align 4, !tbaa !7
  br label %24

24:                                               ; preds = %45, %21
  %25 = load i32, ptr %7, align 4, !tbaa !7
  %26 = load ptr, ptr %4, align 8, !tbaa !3
  %27 = load ptr, ptr %5, align 8, !tbaa !3
  call void @_ZN5boost10filesystem10emit_errorEiRKNS0_4pathEPNS_6system10error_codeEPKc(i32 noundef %25, ptr noundef nonnull align 8 dereferenceable(32) %26, ptr noundef %27, ptr noundef @.str.13)
  store i64 -1, ptr %3, align 8
  store i32 1, ptr %8, align 4
  br label %48

28:                                               ; preds = %13
  %29 = getelementptr inbounds nuw %struct.statx, ptr %6, i32 0, i32 0
  %30 = load i32, ptr %29, align 8, !tbaa !16
  %31 = and i32 %30, 513
  %32 = icmp ne i32 %31, 513
  br i1 %32, label %40, label %33

33:                                               ; preds = %28
  %34 = getelementptr inbounds nuw %struct.statx, ptr %6, i32 0, i32 6
  %35 = load i16, ptr %34, align 4, !tbaa !34
  %36 = zext i16 %35 to i32
  %37 = and i32 %36, 61440
  %38 = icmp eq i32 %37, 32768
  %39 = xor i1 %38, true
  br label %40

40:                                               ; preds = %33, %28
  %41 = phi i1 [ true, %28 ], [ %39, %33 ]
  %42 = zext i1 %41 to i64
  %43 = call i64 @llvm.expect.i64(i64 %42, i64 0)
  %44 = icmp ne i64 %43, 0
  br i1 %44, label %45, label %46

45:                                               ; preds = %40
  store i32 38, ptr %7, align 4, !tbaa !7
  br label %24

46:                                               ; preds = %40
  %47 = call noundef i64 @_ZN5boost10filesystem6detail12_GLOBAL__N_18get_sizeERK5statx(ptr noundef nonnull align 8 dereferenceable(256) %6) #14
  store i64 %47, ptr %3, align 8
  store i32 1, ptr %8, align 4
  br label %48

48:                                               ; preds = %46, %24
  call void @llvm.lifetime.end.p0(i64 4, ptr %7) #14
  call void @llvm.lifetime.end.p0(i64 256, ptr %6) #14
  %49 = load i64, ptr %3, align 8
  ret i64 %49
}