; Function Attrs: mustprogress uwtable
define noundef i64 @_ZN5boost10filesystem6detail9file_sizeERKNS0_4pathEPNS_6system10error_codeE(ptr noundef nonnull align 8 dereferenceable(32) %0, ptr noundef %1) local_unnamed_addr #5 personality ptr @__gxx_personality_v0 {
  %3 = alloca %struct.statx, align 8
  %.not = icmp eq ptr %1, null
  br i1 %.not, label %5, label %4

4:                                                ; preds = %2
  tail call void @llvm.memset.p0.i64(ptr noundef nonnull align 8 dereferenceable(24) %1, i8 0, i64 24, i1 false)
  br label %5

5:                                                ; preds = %4, %2
  call void @llvm.lifetime.start.p0(i64 256, ptr nonnull %3) #27
  %6 = load ptr, ptr %0, align 8, !tbaa !13
  %7 = call noundef i32 @statx(i32 noundef -100, ptr noundef %6, i32 noundef 2048, i32 noundef 513, ptr noundef nonnull %3) #27
  %8 = icmp slt i32 %7, 0
  br i1 %8, label %9, label %13, !prof !41

9:                                                ; preds = %5
  %10 = tail call ptr @__errno_location() #30
  %11 = load i32, ptr %10, align 4, !tbaa !19
  br label %12

12:                                               ; preds = %13, %9
  %.0 = phi i32 [ %11, %9 ], [ 38, %13 ]
  call void @_ZN5boost10filesystem10emit_errorEiRKNS0_4pathEPNS_6system10error_codeEPKc(i32 noundef %.0, ptr noundef nonnull align 8 dereferenceable(32) %0, ptr noundef %1, ptr noundef nonnull @.str.13)
  br label %23

13:                                               ; preds = %5
  %14 = load i32, ptr %3, align 8, !tbaa !28
  %15 = and i32 %14, 513
  %16 = icmp ne i32 %15, 513
  %17 = getelementptr inbounds nuw i8, ptr %3, i64 28
  %18 = load i16, ptr %17, align 4
  %19 = icmp sgt i16 %18, -28673
  %20 = select i1 %16, i1 true, i1 %19, !prof !41
  br i1 %20, label %12, label %21, !prof !41

21:                                               ; preds = %13
  %22 = getelementptr inbounds i8, ptr %3, i64 40
  %.val = load i64, ptr %22, align 8, !tbaa !133
  br label %23

23:                                               ; preds = %21, %12
  %.06 = phi i64 [ -1, %12 ], [ %.val, %21 ]
  call void @llvm.lifetime.end.p0(i64 256, ptr nonnull %3) #27
  ret i64 %.06
}